; Function Attrs: mustprogress uwtable
define internal fastcc void @_ZN3nixL6expectERNS_12_GLOBAL__N_116StringViewStreamESt17basic_string_viewIcSt11char_traitsIcEE(ptr nocapture noundef nonnull align 8 dereferenceable(16) %0, i64 %1, ptr %2) unnamed_addr #4 personality ptr @__gxx_personality_v0 {
  %4 = alloca %"class.std::basic_string_view", align 8
  %5 = alloca %"class.std::__cxx11::basic_string", align 8
  %6 = alloca %"class.std::allocator", align 1
  store i64 %1, ptr %4, align 8
  %7 = getelementptr inbounds i8, ptr %4, i64 8
  store ptr %2, ptr %7, align 8
  %8 = load i64, ptr %0, align 8
  %.sroa.speculated.i.i = tail call i64 @llvm.umin.i64(i64 %8, i64 %1)
  %9 = getelementptr inbounds i8, ptr %0, i64 8
  %10 = load ptr, ptr %9, align 8
  %.not.i = icmp ult i64 %8, %1
  br i1 %.not.i, label %14, label %11

11:                                               ; preds = %3
  %12 = icmp eq i64 %.sroa.speculated.i.i, 0
  br i1 %12, label %_ZNKSt17basic_string_viewIcSt11char_traitsIcEE11starts_withES2_.exit, label %_ZNSt11char_traitsIcE7compareEPKcS2_m.exit.i.i.i

_ZNSt11char_traitsIcE7compareEPKcS2_m.exit.i.i.i: ; preds = %11
  %bcmp.i.i = tail call i32 @bcmp(ptr %10, ptr %2, i64 %.sroa.speculated.i.i)
  %13 = icmp eq i32 %bcmp.i.i, 0
  br i1 %13, label %_ZNKSt17basic_string_viewIcSt11char_traitsIcEE11starts_withES2_.exit, label %14

14:                                               ; preds = %3, %_ZNSt11char_traitsIcE7compareEPKcS2_m.exit.i.i.i
  %15 = tail call ptr @__cxa_allocate_exception(i64 376) #26
  call void @_ZNSaIcEC1Ev(ptr noundef nonnull align 1 dereferenceable(1) %6) #26
  invoke void @_ZNSt7__cxx1112basic_stringIcSt11char_traitsIcESaIcEEC2IS3_EEPKcRKS3_(ptr noundef nonnull align 8 dereferenceable(32) %5, ptr noundef nonnull @.str.62, ptr noundef nonnull align 1 dereferenceable(1) %6)
          to label %16 unwind label %.thread

16:                                               ; preds = %14
  invoke void @_ZN3nix11FormatErrorCI2NS_9BaseErrorEIJSt17basic_string_viewIcSt11char_traitsIcEEEEERKNSt7__cxx1112basic_stringIcS3_SaIcEEEDpRKT_(ptr noundef nonnull align 8 dereferenceable(376) %15, ptr noundef nonnull align 8 dereferenceable(32) %5, ptr noundef nonnull align 8 dereferenceable(16) %4)
          to label %17 unwind label %19

17:                                               ; preds = %16
  invoke void @__cxa_throw(ptr nonnull %15, ptr nonnull @_ZTIN3nix11FormatErrorE, ptr nonnull @_ZN3nix11FormatErrorD2Ev) #27
          to label %25 unwind label %19

.thread:                                          ; preds = %14
  %18 = landingpad { ptr, i32 }
          cleanup
  call void @_ZNSaIcED1Ev(ptr noundef nonnull align 1 dereferenceable(1) %6) #26
  br label %21

19:                                               ; preds = %16, %17
  %.0 = phi i1 [ false, %17 ], [ true, %16 ]
  %20 = landingpad { ptr, i32 }
          cleanup
  call void @_ZNSt7__cxx1112basic_stringIcSt11char_traitsIcESaIcEED2Ev(ptr noundef nonnull align 8 dereferenceable(32) %5) #26
  call void @_ZNSaIcED1Ev(ptr noundef nonnull align 1 dereferenceable(1) %6) #26
  br i1 %.0, label %21, label %24

21:                                               ; preds = %.thread, %19
  %.pn10 = phi { ptr, i32 } [ %18, %.thread ], [ %20, %19 ]
  call void @__cxa_free_exception(ptr %15) #26
  br label %24

_ZNKSt17basic_string_viewIcSt11char_traitsIcEE11starts_withES2_.exit: ; preds = %_ZNSt11char_traitsIcE7compareEPKcS2_m.exit.i.i.i, %11
  %22 = getelementptr inbounds i8, ptr %10, i64 %1
  store ptr %22, ptr %9, align 8
  %23 = sub i64 %8, %1
  store i64 %23, ptr %0, align 8
  ret void

24:                                               ; preds = %19, %21
  %.pn9 = phi { ptr, i32 } [ %20, %19 ], [ %.pn10, %21 ]
  resume { ptr, i32 } %.pn9

25:                                               ; preds = %17
  unreachable
}